target datalayout = "e-m:e-p270:32:32-p271:32:32-p272:64:64-i64:64-i128:128-f80:128-n8:16:32:64-S128"
target triple = "x86_64-pc-linux-gnu"

%struct.H5B2_hdr_t = type { %struct.H5C_cache_entry_t, %struct.H5B2_node_ptr_t, i8, i8, i32, i32, i16, i8, ptr, i64, i64, i64, i64, i8, i8, i8, ptr, ptr, ptr, ptr, ptr, ptr, ptr, i8, ptr, ptr, i64, ptr, ptr }
%struct.H5C_cache_entry_t = type { ptr, i64, i64, ptr, i8, ptr, i8, i8, i8, i8, i32, i8, i8, i8, i8, i8, i32, ptr, i32, i32, i32, i32, i32, i8, i8, ptr, ptr, ptr, ptr, ptr, ptr, i8, i32, i8, i64, ptr, i64, i64, i32, i8, i32, i32, i8, ptr, ptr, ptr }
%struct.H5B2_node_ptr_t = type { i64, i16, i64 }
%struct.H5B2_class_t = type { i32, ptr, i64, ptr, ptr, ptr, ptr, ptr, ptr, ptr }
%struct.H5B2_leaf_t = type { %struct.H5C_cache_entry_t, ptr, ptr, i16, ptr, ptr, i64 }

@H5B2_init_g = external global i8, align 1
@H5_libterm_g = external global i8, align 1
@.str.3 = private unnamed_addr constant [103 x i8] c"generated/home/dtcxzyw/WorkSpace/Projects/compilers/llvm-opt-benchmark/bench/hdf5/hdf5/src/H5B2cache.c\00", align 1
@H5E_BTREE_g = external global i64, align 8
@H5E_CANTENCODE_g = external global i64, align 8
@.str.25 = private unnamed_addr constant [31 x i8] c"unable to encode B-tree record\00", align 1
@.str.30 = private unnamed_addr constant [5 x i8] c"BTLF\00", align 1
@__func__.H5B2__cache_leaf_serialize = private unnamed_addr constant [27 x i8] c"H5B2__cache_leaf_serialize\00", align 1

; Function Attrs: nounwind uwtable
define internal i32 @H5B2__cache_leaf_serialize(ptr noundef %0, ptr noundef %1, i64 noundef %2, ptr noundef %3) #0 {
  %5 = alloca ptr, align 8
  %6 = alloca ptr, align 8
  %7 = alloca i64, align 8
  %8 = alloca ptr, align 8
  %9 = alloca ptr, align 8
  %10 = alloca ptr, align 8
  %11 = alloca ptr, align 8
  %12 = alloca i32, align 4
  %13 = alloca i32, align 4
  %14 = alloca i32, align 4
  %15 = alloca i8, align 1
  store ptr %0, ptr %5, align 8, !tbaa !56
  store ptr %1, ptr %6, align 8, !tbaa !3
  store i64 %2, ptr %7, align 8, !tbaa !19
  store ptr %3, ptr %8, align 8, !tbaa !3
  call void @llvm.lifetime.start.p0(i64 8, ptr %9) #7
  %16 = load ptr, ptr %8, align 8, !tbaa !3
  store ptr %16, ptr %9, align 8, !tbaa !118
  call void @llvm.lifetime.start.p0(i64 8, ptr %10) #7
  %17 = load ptr, ptr %6, align 8, !tbaa !3
  store ptr %17, ptr %10, align 8, !tbaa !20
  call void @llvm.lifetime.start.p0(i64 8, ptr %11) #7
  call void @llvm.lifetime.start.p0(i64 4, ptr %12) #7
  call void @llvm.lifetime.start.p0(i64 4, ptr %13) #7
  call void @llvm.lifetime.start.p0(i64 4, ptr %14) #7
  store i32 0, ptr %14, align 4, !tbaa !22
  call void @llvm.lifetime.start.p0(i64 1, ptr %15) #7
  store i8 0, ptr %15, align 1, !tbaa !11
  %18 = load i8, ptr @H5B2_init_g, align 1, !tbaa !11, !range !13, !noundef !14
  %19 = trunc i8 %18 to i1
  br i1 %19, label %24, label %20

20:                                               ; preds = %4
  %21 = load i8, ptr @H5_libterm_g, align 1, !tbaa !11, !range !13, !noundef !14
  %22 = trunc i8 %21 to i1
  %23 = xor i1 %22, true
  br label %24

24:                                               ; preds = %20, %4
  %25 = phi i1 [ true, %4 ], [ %23, %20 ]
  %26 = xor i1 %25, true
  %27 = xor i1 %26, true
  %28 = zext i1 %27 to i32
  %29 = sext i32 %28 to i64
  %30 = call i64 @llvm.expect.i64(i64 %29, i64 1)
  %31 = icmp ne i64 %30, 0
  br i1 %31, label %32, label %162

32:                                               ; preds = %24
  %33 = load ptr, ptr %10, align 8, !tbaa !20
  call void @llvm.memcpy.p0.p0.i64(ptr align 1 %33, ptr align 1 @.str.30, i64 4, i1 false)
  %34 = load ptr, ptr %10, align 8, !tbaa !20
  %35 = getelementptr inbounds i8, ptr %34, i64 4
  store ptr %35, ptr %10, align 8, !tbaa !20
  %36 = load ptr, ptr %10, align 8, !tbaa !20
  %37 = getelementptr inbounds nuw i8, ptr %36, i32 1
  store ptr %37, ptr %10, align 8, !tbaa !20
  store i8 0, ptr %36, align 1, !tbaa !28
  %38 = load ptr, ptr %9, align 8, !tbaa !118
  %39 = getelementptr inbounds nuw %struct.H5B2_leaf_t, ptr %38, i32 0, i32 1
  %40 = load ptr, ptr %39, align 8, !tbaa !120
  %41 = getelementptr inbounds nuw %struct.H5B2_hdr_t, ptr %40, i32 0, i32 27
  %42 = load ptr, ptr %41, align 8, !tbaa !57
  %43 = getelementptr inbounds nuw %struct.H5B2_class_t, ptr %42, i32 0, i32 0
  %44 = load i32, ptr %43, align 8, !tbaa !58
  %45 = trunc i32 %44 to i8
  %46 = load ptr, ptr %10, align 8, !tbaa !20
  %47 = getelementptr inbounds nuw i8, ptr %46, i32 1
  store ptr %47, ptr %10, align 8, !tbaa !20
  store i8 %45, ptr %46, align 1, !tbaa !28
  %48 = load ptr, ptr %9, align 8, !tbaa !118
  %49 = getelementptr inbounds nuw %struct.H5B2_leaf_t, ptr %48, i32 0, i32 2
  %50 = load ptr, ptr %49, align 8, !tbaa !125
  store ptr %50, ptr %11, align 8, !tbaa !20
  store i32 0, ptr %13, align 4, !tbaa !22
  br label %51

51:                                               ; preds = %112, %32
  %52 = load i32, ptr %13, align 4, !tbaa !22
  %53 = load ptr, ptr %9, align 8, !tbaa !118
  %54 = getelementptr inbounds nuw %struct.H5B2_leaf_t, ptr %53, i32 0, i32 3
  %55 = load i16, ptr %54, align 8, !tbaa !127
  %56 = zext i16 %55 to i32
  %57 = icmp ult i32 %52, %56
  br i1 %57, label %58, label %115

58:                                               ; preds = %51
  %59 = load ptr, ptr %9, align 8, !tbaa !118
  %60 = getelementptr inbounds nuw %struct.H5B2_leaf_t, ptr %59, i32 0, i32 1
  %61 = load ptr, ptr %60, align 8, !tbaa !120
  %62 = getelementptr inbounds nuw %struct.H5B2_hdr_t, ptr %61, i32 0, i32 27
  %63 = load ptr, ptr %62, align 8, !tbaa !57
  %64 = getelementptr inbounds nuw %struct.H5B2_class_t, ptr %63, i32 0, i32 7
  %65 = load ptr, ptr %64, align 8, !tbaa !107
  %66 = load ptr, ptr %10, align 8, !tbaa !20
  %67 = load ptr, ptr %11, align 8, !tbaa !20
  %68 = load ptr, ptr %9, align 8, !tbaa !118
  %69 = getelementptr inbounds nuw %struct.H5B2_leaf_t, ptr %68, i32 0, i32 1
  %70 = load ptr, ptr %69, align 8, !tbaa !120
  %71 = getelementptr inbounds nuw %struct.H5B2_hdr_t, ptr %70, i32 0, i32 28
  %72 = load ptr, ptr %71, align 8, !tbaa !98
  %73 = call i32 %65(ptr noundef %66, ptr noundef %67, ptr noundef %72)
  %74 = icmp slt i32 %73, 0
  br i1 %74, label %75, label %94

75:                                               ; preds = %58
  br label %76

76:                                               ; preds = %75
  br label %77

77:                                               ; preds = %76
  br label %78

78:                                               ; preds = %77
  %79 = load i64, ptr @H5E_BTREE_g, align 8, !tbaa !19
  %80 = load i64, ptr @H5E_CANTENCODE_g, align 8, !tbaa !19
  %81 = call i32 (ptr, ptr, i32, i64, i64, ptr, ...) @H5E_printf_stack(ptr noundef @.str.3, ptr noundef @__func__.H5B2__cache_leaf_serialize, i32 noundef 1150, i64 noundef %79, i64 noundef %80, ptr noundef @.str.25)
  br label %82

82:                                               ; preds = %78
  br label %83

83:                                               ; preds = %82
  store i8 1, ptr %15, align 1, !tbaa !11
  %84 = load i8, ptr %15, align 1, !tbaa !11, !range !13, !noundef !14
  %85 = trunc i8 %84 to i1
  %86 = zext i1 %85 to i8
  store i8 %86, ptr %15, align 1, !tbaa !11
  br label %87

87:                                               ; preds = %83
  br label %88

88:                                               ; preds = %87
  br label %89

89:                                               ; preds = %88
  store i32 -1, ptr %14, align 4, !tbaa !22
  br label %161

90:                                               ; No predecessors!
  br label %91

91:                                               ; preds = %90
  br label %92

92:                                               ; preds = %91
  br label %93

93:                                               ; preds = %92
  br label %94

94:                                               ; preds = %93, %58
  %95 = load ptr, ptr %9, align 8, !tbaa !118
  %96 = getelementptr inbounds nuw %struct.H5B2_leaf_t, ptr %95, i32 0, i32 1
  %97 = load ptr, ptr %96, align 8, !tbaa !120
  %98 = getelementptr inbounds nuw %struct.H5B2_hdr_t, ptr %97, i32 0, i32 5
  %99 = load i32, ptr %98, align 8, !tbaa !61
  %100 = load ptr, ptr %10, align 8, !tbaa !20
  %101 = zext i32 %99 to i64
  %102 = getelementptr inbounds nuw i8, ptr %100, i64 %101
  store ptr %102, ptr %10, align 8, !tbaa !20
  %103 = load ptr, ptr %9, align 8, !tbaa !118
  %104 = getelementptr inbounds nuw %struct.H5B2_leaf_t, ptr %103, i32 0, i32 1
  %105 = load ptr, ptr %104, align 8, !tbaa !120
  %106 = getelementptr inbounds nuw %struct.H5B2_hdr_t, ptr %105, i32 0, i32 27
  %107 = load ptr, ptr %106, align 8, !tbaa !57
  %108 = getelementptr inbounds nuw %struct.H5B2_class_t, ptr %107, i32 0, i32 2
  %109 = load i64, ptr %108, align 8, !tbaa !99
  %110 = load ptr, ptr %11, align 8, !tbaa !20
  %111 = getelementptr inbounds nuw i8, ptr %110, i64 %109
  store ptr %111, ptr %11, align 8, !tbaa !20
  br label %112

112:                                              ; preds = %94
  %113 = load i32, ptr %13, align 4, !tbaa !22
  %114 = add i32 %113, 1
  store i32 %114, ptr %13, align 4, !tbaa !22
  br label %51, !llvm.loop !129

115:                                              ; preds = %51
  %116 = load ptr, ptr %6, align 8, !tbaa !3
  %117 = load ptr, ptr %10, align 8, !tbaa !20
  %118 = load ptr, ptr %6, align 8, !tbaa !3
  %119 = ptrtoint ptr %117 to i64
  %120 = ptrtoint ptr %118 to i64
  %121 = sub i64 %119, %120
  %122 = call i32 @H5_checksum_metadata(ptr noundef %116, i64 noundef %121, i32 noundef 0)
  store i32 %122, ptr %12, align 4, !tbaa !22
  br label %123

123:                                              ; preds = %115
  %124 = load i32, ptr %12, align 4, !tbaa !22
  %125 = and i32 %124, 255
  %126 = trunc i32 %125 to i8
  %127 = load ptr, ptr %10, align 8, !tbaa !20
  store i8 %126, ptr %127, align 1, !tbaa !28
  %128 = load ptr, ptr %10, align 8, !tbaa !20
  %129 = getelementptr inbounds nuw i8, ptr %128, i32 1
  store ptr %129, ptr %10, align 8, !tbaa !20
  %130 = load i32, ptr %12, align 4, !tbaa !22
  %131 = lshr i32 %130, 8
  %132 = and i32 %131, 255
  %133 = trunc i32 %132 to i8
  %134 = load ptr, ptr %10, align 8, !tbaa !20
  store i8 %133, ptr %134, align 1, !tbaa !28
  %135 = load ptr, ptr %10, align 8, !tbaa !20
  %136 = getelementptr inbounds nuw i8, ptr %135, i32 1
  store ptr %136, ptr %10, align 8, !tbaa !20
  %137 = load i32, ptr %12, align 4, !tbaa !22
  %138 = lshr i32 %137, 16
  %139 = and i32 %138, 255
  %140 = trunc i32 %139 to i8
  %141 = load ptr, ptr %10, align 8, !tbaa !20
  store i8 %140, ptr %141, align 1, !tbaa !28
  %142 = load ptr, ptr %10, align 8, !tbaa !20
  %143 = getelementptr inbounds nuw i8, ptr %142, i32 1
  store ptr %143, ptr %10, align 8, !tbaa !20
  %144 = load i32, ptr %12, align 4, !tbaa !22
  %145 = lshr i32 %144, 24
  %146 = and i32 %145, 255
  %147 = trunc i32 %146 to i8
  %148 = load ptr, ptr %10, align 8, !tbaa !20
  store i8 %147, ptr %148, align 1, !tbaa !28
  %149 = load ptr, ptr %10, align 8, !tbaa !20
  %150 = getelementptr inbounds nuw i8, ptr %149, i32 1
  store ptr %150, ptr %10, align 8, !tbaa !20
  br label %151

151:                                              ; preds = %123
  br label %152

152:                                              ; preds = %151
  %153 = load ptr, ptr %10, align 8, !tbaa !20
  %154 = load i64, ptr %7, align 8, !tbaa !19
  %155 = load ptr, ptr %10, align 8, !tbaa !20
  %156 = load ptr, ptr %6, align 8, !tbaa !3
  %157 = ptrtoint ptr %155 to i64
  %158 = ptrtoint ptr %156 to i64
  %159 = sub i64 %157, %158
  %160 = sub i64 %154, %159
  call void @llvm.memset.p0.i64(ptr align 1 %153, i8 0, i64 %160, i1 false)
  br label %161

161:                                              ; preds = %152, %89
  br label %162

162:                                              ; preds = %161, %24
  %163 = load i32, ptr %14, align 4, !tbaa !22
  call void @llvm.lifetime.end.p0(i64 1, ptr %15) #7
  call void @llvm.lifetime.end.p0(i64 4, ptr %14) #7
  call void @llvm.lifetime.end.p0(i64 4, ptr %13) #7
  call void @llvm.lifetime.end.p0(i64 4, ptr %12) #7
  call void @llvm.lifetime.end.p0(i64 8, ptr %11) #7
  call void @llvm.lifetime.end.p0(i64 8, ptr %10) #7
  call void @llvm.lifetime.end.p0(i64 8, ptr %9) #7
  ret i32 %163
}