; Function Attrs: nounwind uwtable
define internal range(i32 -1, 1) i32 @H5B2__cache_leaf_serialize(ptr readnone captures(none) %0, ptr noundef %1, i64 noundef %2, ptr noundef readonly captures(none) %3) #0 {
  %5 = load i8, ptr @H5B2_init_g, align 1, !tbaa !3, !range !7, !noundef !8
  %6 = trunc nuw i8 %5 to i1
  %7 = load i8, ptr @H5_libterm_g, align 1, !range !7
  %8 = trunc nuw i8 %7 to i1
  %9 = xor i1 %8, true
  %10 = select i1 %6, i1 true, i1 %9
  br i1 %10, label %11, label %69, !prof !9

11:                                               ; preds = %4
  store i32 1179407426, ptr %1, align 1
  %12 = getelementptr inbounds nuw i8, ptr %1, i64 4
  %13 = getelementptr inbounds nuw i8, ptr %1, i64 5
  store i8 0, ptr %12, align 1, !tbaa !20
  %14 = getelementptr inbounds nuw i8, ptr %3, i64 248
  %15 = load ptr, ptr %14, align 8, !tbaa !103
  %16 = getelementptr inbounds nuw i8, ptr %15, i64 424
  %17 = load ptr, ptr %16, align 8, !tbaa !48
  %18 = load i32, ptr %17, align 8, !tbaa !49
  %19 = trunc i32 %18 to i8
  %20 = getelementptr inbounds nuw i8, ptr %1, i64 6
  store i8 %19, ptr %13, align 1, !tbaa !20
  %21 = getelementptr inbounds nuw i8, ptr %3, i64 264
  %22 = load i16, ptr %21, align 8, !tbaa !110
  %.not = icmp eq i16 %22, 0
  br i1 %.not, label %._crit_edge, label %.lr.ph.preheader

.lr.ph.preheader:                                 ; preds = %11
  %23 = getelementptr inbounds nuw i8, ptr %3, i64 256
  %24 = load ptr, ptr %23, align 8, !tbaa !108
  %.pre = load ptr, ptr %14, align 8, !tbaa !103
  %.phi.trans.insert = getelementptr inbounds nuw i8, ptr %.pre, i64 424
  %.pre47 = load ptr, ptr %.phi.trans.insert, align 8, !tbaa !48
  br label %.lr.ph

.lr.ph:                                           ; preds = %.lr.ph.preheader, %37
  %25 = phi ptr [ %44, %37 ], [ %.pre47, %.lr.ph.preheader ]
  %26 = phi ptr [ %38, %37 ], [ %.pre, %.lr.ph.preheader ]
  %.03946 = phi i32 [ %48, %37 ], [ 0, %.lr.ph.preheader ]
  %.04045 = phi ptr [ %42, %37 ], [ %20, %.lr.ph.preheader ]
  %.04144 = phi ptr [ %47, %37 ], [ %24, %.lr.ph.preheader ]
  %27 = getelementptr inbounds nuw i8, ptr %25, i64 56
  %28 = load ptr, ptr %27, align 8, !tbaa !94
  %29 = getelementptr inbounds nuw i8, ptr %26, i64 432
  %30 = load ptr, ptr %29, align 8, !tbaa !85
  %31 = tail call i32 %28(ptr noundef %.04045, ptr noundef %.04144, ptr noundef %30) #6
  %32 = icmp slt i32 %31, 0
  br i1 %32, label %33, label %37

33:                                               ; preds = %.lr.ph
  %34 = load i64, ptr @H5E_BTREE_g, align 8, !tbaa !15
  %35 = load i64, ptr @H5E_CANTENCODE_g, align 8, !tbaa !15
  %36 = tail call i32 (ptr, ptr, i32, i64, i64, ptr, ...) @H5E_printf_stack(ptr noundef nonnull @.str.3, ptr noundef nonnull @__func__.H5B2__cache_leaf_serialize, i32 noundef 1150, i64 noundef %34, i64 noundef %35, ptr noundef nonnull @.str.25) #6
  br label %69

37:                                               ; preds = %.lr.ph
  %38 = load ptr, ptr %14, align 8, !tbaa !103
  %39 = getelementptr inbounds nuw i8, ptr %38, i64 280
  %40 = load i32, ptr %39, align 8, !tbaa !52
  %41 = zext i32 %40 to i64
  %42 = getelementptr inbounds nuw i8, ptr %.04045, i64 %41
  %43 = getelementptr inbounds nuw i8, ptr %38, i64 424
  %44 = load ptr, ptr %43, align 8, !tbaa !48
  %45 = getelementptr inbounds nuw i8, ptr %44, i64 16
  %46 = load i64, ptr %45, align 8, !tbaa !86
  %47 = getelementptr inbounds nuw i8, ptr %.04144, i64 %46
  %48 = add nuw nsw i32 %.03946, 1
  %49 = load i16, ptr %21, align 8, !tbaa !110
  %50 = zext i16 %49 to i32
  %51 = icmp samesign ult i32 %48, %50
  br i1 %51, label %.lr.ph, label %._crit_edge, !llvm.loop !112

._crit_edge:                                      ; preds = %37, %11
  %.040.lcssa = phi ptr [ %20, %11 ], [ %42, %37 ]
  %52 = ptrtoint ptr %.040.lcssa to i64
  %53 = ptrtoint ptr %1 to i64
  %54 = sub i64 %52, %53
  %55 = tail call i32 @H5_checksum_metadata(ptr noundef nonnull %1, i64 noundef %54, i32 noundef 0) #6
  %56 = trunc i32 %55 to i8
  store i8 %56, ptr %.040.lcssa, align 1, !tbaa !20
  %57 = getelementptr inbounds nuw i8, ptr %.040.lcssa, i64 1
  %58 = lshr i32 %55, 8
  %59 = trunc i32 %58 to i8
  store i8 %59, ptr %57, align 1, !tbaa !20
  %60 = getelementptr inbounds nuw i8, ptr %.040.lcssa, i64 2
  %61 = lshr i32 %55, 16
  %62 = trunc i32 %61 to i8
  store i8 %62, ptr %60, align 1, !tbaa !20
  %63 = getelementptr inbounds nuw i8, ptr %.040.lcssa, i64 3
  %64 = lshr i32 %55, 24
  %65 = trunc nuw i32 %64 to i8
  store i8 %65, ptr %63, align 1, !tbaa !20
  %66 = getelementptr inbounds nuw i8, ptr %.040.lcssa, i64 4
  %67 = ptrtoint ptr %66 to i64
  %.neg = add i64 %2, %53
  %68 = sub i64 %.neg, %67
  tail call void @llvm.memset.p0.i64(ptr nonnull align 1 %66, i8 0, i64 %68, i1 false)
  br label %69

69:                                               ; preds = %33, %._crit_edge, %4
  %.0 = phi i32 [ -1, %33 ], [ 0, %._crit_edge ], [ 0, %4 ]
  ret i32 %.0
}